; Function Attrs: mustprogress uwtable
define internal fastcc noundef nonnull ptr @_ZN7V3Sched12_GLOBAL__N_115makeSubFunctionEP10AstNetlistRKNSt7__cxx1112basic_stringIcSt11char_traitsIcESaIcEEEb(ptr nocapture noundef readonly %0, ptr noundef nonnull align 8 dereferenceable(32) %1, i1 noundef zeroext %2) unnamed_addr #3 personality ptr @__gxx_personality_v0 {
  %4 = alloca %"class.std::__cxx11::basic_string", align 8
  %5 = alloca %"class.std::allocator.74", align 1
  %6 = getelementptr inbounds i8, ptr %0, i64 240
  %7 = load ptr, ptr %6, align 8
  %8 = getelementptr inbounds i8, ptr %7, i64 32
  %9 = load ptr, ptr %8, align 8
  %10 = tail call noalias noundef nonnull dereferenceable(328) ptr @_Znwm(i64 noundef 328) #26
  %11 = getelementptr inbounds i8, ptr %0, i64 88
  %12 = load ptr, ptr %11, align 8
  call void @_ZNSaIcEC1Ev(ptr noundef nonnull align 1 dereferenceable(1) %5) #24
  %13 = invoke noundef ptr @_ZNSt7__cxx1112basic_stringIcSt11char_traitsIcESaIcEE13_M_local_dataEv(ptr noundef nonnull align 8 dereferenceable(32) %4)
          to label %.noexc unwind label %24

.noexc:                                           ; preds = %3
  invoke void @_ZNSt7__cxx1112basic_stringIcSt11char_traitsIcESaIcEE12_Alloc_hiderC1EPcRKS3_(ptr noundef nonnull align 8 dereferenceable(8) %4, ptr noundef %13, ptr noundef nonnull align 1 dereferenceable(1) %5)
          to label %.noexc18 unwind label %24

.noexc18:                                         ; preds = %.noexc
  invoke void @_ZNSt7__cxx1112basic_stringIcSt11char_traitsIcESaIcEE12_M_constructIPKcEEvT_S8_St20forward_iterator_tag(ptr noundef nonnull align 8 dereferenceable(32) %4, ptr noundef nonnull @.str.52, ptr noundef nonnull @.str.52)
          to label %_ZNSt7__cxx1112basic_stringIcSt11char_traitsIcESaIcEEC2IS3_EEPKcRKS3_.exit unwind label %14

14:                                               ; preds = %.noexc18
  %15 = landingpad { ptr, i32 }
          cleanup
  call void @_ZNSaIcED2Ev(ptr noundef nonnull align 1 dereferenceable(1) %4) #24
  br label %.body

_ZNSt7__cxx1112basic_stringIcSt11char_traitsIcESaIcEEC2IS3_EEPKcRKS3_.exit: ; preds = %.noexc18
  invoke void @_ZN8AstCFuncC2EP8FileLineRKNSt7__cxx1112basic_stringIcSt11char_traitsIcESaIcEEEP8AstScopeS9_(ptr noundef nonnull align 8 dereferenceable(328) %10, ptr noundef %12, ptr noundef nonnull align 8 dereferenceable(32) %1, ptr noundef %9, ptr noundef nonnull align 8 dereferenceable(32) %4)
          to label %16 unwind label %26

16:                                               ; preds = %_ZNSt7__cxx1112basic_stringIcSt11char_traitsIcESaIcEEC2IS3_EEPKcRKS3_.exit
  call void @_ZNSt7__cxx1112basic_stringIcSt11char_traitsIcESaIcEED1Ev(ptr noundef nonnull align 8 dereferenceable(32) %4) #24
  call void @_ZNSaIcED1Ev(ptr noundef nonnull align 1 dereferenceable(1) %5) #24
  %17 = getelementptr inbounds i8, ptr %10, i64 313
  %18 = load i32, ptr %17, align 1
  %19 = and i32 %18, -542
  %20 = select i1 %2, i32 16, i32 0
  %21 = or disjoint i32 %19, %20
  %22 = getelementptr inbounds i8, ptr %10, i64 312
  store i8 0, ptr %22, align 1
  %23 = or disjoint i32 %21, 524
  store i32 %23, ptr %17, align 1
  call void @_ZN7AstNode7addOp2pEPS_(ptr noundef nonnull align 8 dereferenceable(152) %9, ptr noundef nonnull %10)
  ret ptr %10

24:                                               ; preds = %.noexc, %3
  %25 = landingpad { ptr, i32 }
          cleanup
  br label %.body

26:                                               ; preds = %_ZNSt7__cxx1112basic_stringIcSt11char_traitsIcESaIcEEC2IS3_EEPKcRKS3_.exit
  %27 = landingpad { ptr, i32 }
          cleanup
  call void @_ZNSt7__cxx1112basic_stringIcSt11char_traitsIcESaIcEED1Ev(ptr noundef nonnull align 8 dereferenceable(32) %4) #24
  br label %.body

.body:                                            ; preds = %24, %14, %26
  %.pn = phi { ptr, i32 } [ %27, %26 ], [ %25, %24 ], [ %15, %14 ]
  call void @_ZNSaIcED1Ev(ptr noundef nonnull align 1 dereferenceable(1) %5) #24
  call void @_ZdlPv(ptr noundef nonnull %10) #27
  resume { ptr, i32 } %.pn
}